target datalayout = "e-m:e-p270:32:32-p271:32:32-p272:64:64-i64:64-i128:128-f80:128-n8:16:32:64-S128"
target triple = "x86_64-pc-linux-gnu"

%struct.AlacEncodeContext = type { ptr, ptr, i32, i32, i32, i32, i32, i32, i32, i32, [2 x [4096 x i32]], [2 x [4096 x i32]], i32, i32, %struct.PutBitContext, %struct.RiceContext, [2 x %struct.AlacLPCContext], %struct.LPCContext }
%struct.PutBitContext = type { i32, i32, ptr, ptr, ptr }
%struct.RiceContext = type { i32, i32, i32, i32 }
%struct.AlacLPCContext = type { i32, [31 x i32], i32 }
%struct.LPCContext = type { i32, i32, i32, ptr, ptr, ptr, ptr, [2 x %struct.LLSModel] }
%struct.LLSModel = type { [36 x [36 x double]], [32 x [32 x double]], [32 x double], i32, ptr, ptr, [8 x i8] }

@.str.9 = private unnamed_addr constant [43 x i8] c"Internal error, put_bits buffer too small\0A\00", align 1

; Function Attrs: alwaysinline nounwind willreturn memory(none) uwtable
define internal i32 @av_bswap32(i32 noundef %0) #4 {
  %2 = alloca i32, align 4
  store i32 %0, ptr %2, align 4, !tbaa !57
  %3 = load i32, ptr %2, align 4, !tbaa !57
  %4 = shl i32 %3, 8
  %5 = and i32 %4, 65280
  %6 = load i32, ptr %2, align 4, !tbaa !57
  %7 = lshr i32 %6, 8
  %8 = and i32 %7, 255
  %9 = or i32 %5, %8
  %10 = shl i32 %9, 16
  %11 = load i32, ptr %2, align 4, !tbaa !57
  %12 = lshr i32 %11, 16
  %13 = shl i32 %12, 8
  %14 = and i32 %13, 65280
  %15 = load i32, ptr %2, align 4, !tbaa !57
  %16 = lshr i32 %15, 16
  %17 = lshr i32 %16, 8
  %18 = and i32 %17, 255
  %19 = or i32 %14, %18
  %20 = or i32 %10, %19
  ret i32 %20
}

; Function Attrs: inlinehint nounwind uwtable
define internal void @put_bits_no_assert(ptr noundef %0, i32 noundef %1, i32 noundef %2) #6 {
  %4 = alloca ptr, align 8
  %5 = alloca i32, align 4
  %6 = alloca i32, align 4
  %7 = alloca i32, align 4
  %8 = alloca i32, align 4
  store ptr %0, ptr %4, align 8, !tbaa !73
  store i32 %1, ptr %5, align 4, !tbaa !57
  store i32 %2, ptr %6, align 4, !tbaa !57
  call void @llvm.lifetime.start.p0(i64 4, ptr %7) #10
  call void @llvm.lifetime.start.p0(i64 4, ptr %8) #10
  %9 = load ptr, ptr %4, align 8, !tbaa !73
  %10 = getelementptr inbounds nuw %struct.PutBitContext, ptr %9, i32 0, i32 0
  %11 = load i32, ptr %10, align 8, !tbaa !83
  store i32 %11, ptr %7, align 4, !tbaa !57
  %12 = load ptr, ptr %4, align 8, !tbaa !73
  %13 = getelementptr inbounds nuw %struct.PutBitContext, ptr %12, i32 0, i32 1
  %14 = load i32, ptr %13, align 4, !tbaa !82
  store i32 %14, ptr %8, align 4, !tbaa !57
  %15 = load i32, ptr %5, align 4, !tbaa !57
  %16 = load i32, ptr %8, align 4, !tbaa !57
  %17 = icmp slt i32 %15, %16
  br i1 %17, label %18, label %27

18:                                               ; preds = %3
  %19 = load i32, ptr %7, align 4, !tbaa !57
  %20 = load i32, ptr %5, align 4, !tbaa !57
  %21 = shl i32 %19, %20
  %22 = load i32, ptr %6, align 4, !tbaa !57
  %23 = or i32 %21, %22
  store i32 %23, ptr %7, align 4, !tbaa !57
  %24 = load i32, ptr %5, align 4, !tbaa !57
  %25 = load i32, ptr %8, align 4, !tbaa !57
  %26 = sub nsw i32 %25, %24
  store i32 %26, ptr %8, align 4, !tbaa !57
  br label %65

27:                                               ; preds = %3
  %28 = load i32, ptr %8, align 4, !tbaa !57
  %29 = load i32, ptr %7, align 4, !tbaa !57
  %30 = shl i32 %29, %28
  store i32 %30, ptr %7, align 4, !tbaa !57
  %31 = load i32, ptr %6, align 4, !tbaa !57
  %32 = load i32, ptr %5, align 4, !tbaa !57
  %33 = load i32, ptr %8, align 4, !tbaa !57
  %34 = sub nsw i32 %32, %33
  %35 = lshr i32 %31, %34
  %36 = load i32, ptr %7, align 4, !tbaa !57
  %37 = or i32 %36, %35
  store i32 %37, ptr %7, align 4, !tbaa !57
  %38 = load ptr, ptr %4, align 8, !tbaa !73
  %39 = getelementptr inbounds nuw %struct.PutBitContext, ptr %38, i32 0, i32 4
  %40 = load ptr, ptr %39, align 8, !tbaa !80
  %41 = load ptr, ptr %4, align 8, !tbaa !73
  %42 = getelementptr inbounds nuw %struct.PutBitContext, ptr %41, i32 0, i32 3
  %43 = load ptr, ptr %42, align 8, !tbaa !81
  %44 = ptrtoint ptr %40 to i64
  %45 = ptrtoint ptr %43 to i64
  %46 = sub i64 %44, %45
  %47 = icmp uge i64 %46, 4
  br i1 %47, label %48, label %58

48:                                               ; preds = %27
  %49 = load i32, ptr %7, align 4, !tbaa !57
  %50 = call i32 @av_bswap32(i32 noundef %49) #11
  %51 = load ptr, ptr %4, align 8, !tbaa !73
  %52 = getelementptr inbounds nuw %struct.PutBitContext, ptr %51, i32 0, i32 3
  %53 = load ptr, ptr %52, align 8, !tbaa !81
  store i32 %50, ptr %53, align 1, !tbaa !52
  %54 = load ptr, ptr %4, align 8, !tbaa !73
  %55 = getelementptr inbounds nuw %struct.PutBitContext, ptr %54, i32 0, i32 3
  %56 = load ptr, ptr %55, align 8, !tbaa !81
  %57 = getelementptr inbounds nuw i8, ptr %56, i64 4
  store ptr %57, ptr %55, align 8, !tbaa !81
  br label %59

58:                                               ; preds = %27
  call void (ptr, i32, ptr, ...) @av_log(ptr noundef null, i32 noundef 16, ptr noundef @.str.9)
  br label %59

59:                                               ; preds = %58, %48
  %60 = load i32, ptr %5, align 4, !tbaa !57
  %61 = sub nsw i32 32, %60
  %62 = load i32, ptr %8, align 4, !tbaa !57
  %63 = add nsw i32 %62, %61
  store i32 %63, ptr %8, align 4, !tbaa !57
  %64 = load i32, ptr %6, align 4, !tbaa !57
  store i32 %64, ptr %7, align 4, !tbaa !57
  br label %65

65:                                               ; preds = %59, %18
  %66 = load i32, ptr %7, align 4, !tbaa !57
  %67 = load ptr, ptr %4, align 8, !tbaa !73
  %68 = getelementptr inbounds nuw %struct.PutBitContext, ptr %67, i32 0, i32 0
  store i32 %66, ptr %68, align 8, !tbaa !83
  %69 = load i32, ptr %8, align 4, !tbaa !57
  %70 = load ptr, ptr %4, align 8, !tbaa !73
  %71 = getelementptr inbounds nuw %struct.PutBitContext, ptr %70, i32 0, i32 1
  store i32 %69, ptr %71, align 4, !tbaa !82
  call void @llvm.lifetime.end.p0(i64 4, ptr %8) #10
  call void @llvm.lifetime.end.p0(i64 4, ptr %7) #10
  ret void
}

; Function Attrs: nounwind uwtable
define internal void @put_bits32(ptr noundef %0, i32 noundef %1) #1 {
  %3 = alloca ptr, align 8
  %4 = alloca i32, align 4
  %5 = alloca i32, align 4
  %6 = alloca i32, align 4
  store ptr %0, ptr %3, align 8, !tbaa !73
  store i32 %1, ptr %4, align 4, !tbaa !57
  call void @llvm.lifetime.start.p0(i64 4, ptr %5) #10
  call void @llvm.lifetime.start.p0(i64 4, ptr %6) #10
  %7 = load ptr, ptr %3, align 8, !tbaa !73
  %8 = getelementptr inbounds nuw %struct.PutBitContext, ptr %7, i32 0, i32 0
  %9 = load i32, ptr %8, align 8, !tbaa !83
  store i32 %9, ptr %5, align 4, !tbaa !57
  %10 = load ptr, ptr %3, align 8, !tbaa !73
  %11 = getelementptr inbounds nuw %struct.PutBitContext, ptr %10, i32 0, i32 1
  %12 = load i32, ptr %11, align 4, !tbaa !82
  store i32 %12, ptr %6, align 4, !tbaa !57
  %13 = load i32, ptr %5, align 4, !tbaa !57
  %14 = zext i32 %13 to i64
  %15 = load i32, ptr %6, align 4, !tbaa !57
  %16 = zext i32 %15 to i64
  %17 = shl i64 %14, %16
  %18 = trunc i64 %17 to i32
  store i32 %18, ptr %5, align 4, !tbaa !57
  %19 = load i32, ptr %4, align 4, !tbaa !57
  %20 = load i32, ptr %6, align 4, !tbaa !57
  %21 = sub nsw i32 32, %20
  %22 = lshr i32 %19, %21
  %23 = load i32, ptr %5, align 4, !tbaa !57
  %24 = or i32 %23, %22
  store i32 %24, ptr %5, align 4, !tbaa !57
  %25 = load ptr, ptr %3, align 8, !tbaa !73
  %26 = getelementptr inbounds nuw %struct.PutBitContext, ptr %25, i32 0, i32 4
  %27 = load ptr, ptr %26, align 8, !tbaa !80
  %28 = load ptr, ptr %3, align 8, !tbaa !73
  %29 = getelementptr inbounds nuw %struct.PutBitContext, ptr %28, i32 0, i32 3
  %30 = load ptr, ptr %29, align 8, !tbaa !81
  %31 = ptrtoint ptr %27 to i64
  %32 = ptrtoint ptr %30 to i64
  %33 = sub i64 %31, %32
  %34 = icmp uge i64 %33, 4
  br i1 %34, label %35, label %45

35:                                               ; preds = %2
  %36 = load i32, ptr %5, align 4, !tbaa !57
  %37 = call i32 @av_bswap32(i32 noundef %36) #11
  %38 = load ptr, ptr %3, align 8, !tbaa !73
  %39 = getelementptr inbounds nuw %struct.PutBitContext, ptr %38, i32 0, i32 3
  %40 = load ptr, ptr %39, align 8, !tbaa !81
  store i32 %37, ptr %40, align 1, !tbaa !52
  %41 = load ptr, ptr %3, align 8, !tbaa !73
  %42 = getelementptr inbounds nuw %struct.PutBitContext, ptr %41, i32 0, i32 3
  %43 = load ptr, ptr %42, align 8, !tbaa !81
  %44 = getelementptr inbounds nuw i8, ptr %43, i64 4
  store ptr %44, ptr %42, align 8, !tbaa !81
  br label %46

45:                                               ; preds = %2
  call void (ptr, i32, ptr, ...) @av_log(ptr noundef null, i32 noundef 16, ptr noundef @.str.9)
  br label %46

46:                                               ; preds = %45, %35
  %47 = load i32, ptr %4, align 4, !tbaa !57
  store i32 %47, ptr %5, align 4, !tbaa !57
  %48 = load i32, ptr %5, align 4, !tbaa !57
  %49 = load ptr, ptr %3, align 8, !tbaa !73
  %50 = getelementptr inbounds nuw %struct.PutBitContext, ptr %49, i32 0, i32 0
  store i32 %48, ptr %50, align 8, !tbaa !83
  %51 = load i32, ptr %6, align 4, !tbaa !57
  %52 = load ptr, ptr %3, align 8, !tbaa !73
  %53 = getelementptr inbounds nuw %struct.PutBitContext, ptr %52, i32 0, i32 1
  store i32 %51, ptr %53, align 4, !tbaa !82
  call void @llvm.lifetime.end.p0(i64 4, ptr %6) #10
  call void @llvm.lifetime.end.p0(i64 4, ptr %5) #10
  ret void
}

; Function Attrs: inlinehint nounwind uwtable
define internal void @put_bits(ptr noundef %0, i32 noundef %1, i32 noundef %2) #6 {
  %4 = alloca ptr, align 8
  %5 = alloca i32, align 4
  %6 = alloca i32, align 4
  store ptr %0, ptr %4, align 8, !tbaa !73
  store i32 %1, ptr %5, align 4, !tbaa !57
  store i32 %2, ptr %6, align 4, !tbaa !57
  %7 = load ptr, ptr %4, align 8, !tbaa !73
  %8 = load i32, ptr %5, align 4, !tbaa !57
  %9 = load i32, ptr %6, align 4, !tbaa !57
  call void @put_bits_no_assert(ptr noundef %7, i32 noundef %8, i32 noundef %9)
  ret void
}

; Function Attrs: nounwind uwtable
define internal void @write_element_header(ptr noundef %0, i32 noundef %1, i32 noundef %2) #1 {
  %4 = alloca ptr, align 8
  %5 = alloca i32, align 4
  %6 = alloca i32, align 4
  %7 = alloca i32, align 4
  store ptr %0, ptr %4, align 8, !tbaa !29
  store i32 %1, ptr %5, align 4, !tbaa !57
  store i32 %2, ptr %6, align 4, !tbaa !57
  call void @llvm.lifetime.start.p0(i64 4, ptr %7) #10
  store i32 0, ptr %7, align 4, !tbaa !57
  %8 = load ptr, ptr %4, align 8, !tbaa !29
  %9 = getelementptr inbounds nuw %struct.AlacEncodeContext, ptr %8, i32 0, i32 2
  %10 = load i32, ptr %9, align 16, !tbaa !31
  %11 = icmp slt i32 %10, 4096
  br i1 %11, label %12, label %13

12:                                               ; preds = %3
  store i32 1, ptr %7, align 4, !tbaa !57
  br label %13

13:                                               ; preds = %12, %3
  %14 = load ptr, ptr %4, align 8, !tbaa !29
  %15 = getelementptr inbounds nuw %struct.AlacEncodeContext, ptr %14, i32 0, i32 14
  %16 = load i32, ptr %5, align 4, !tbaa !57
  call void @put_bits(ptr noundef %15, i32 noundef 3, i32 noundef %16)
  %17 = load ptr, ptr %4, align 8, !tbaa !29
  %18 = getelementptr inbounds nuw %struct.AlacEncodeContext, ptr %17, i32 0, i32 14
  %19 = load i32, ptr %6, align 4, !tbaa !57
  call void @put_bits(ptr noundef %18, i32 noundef 4, i32 noundef %19)
  %20 = load ptr, ptr %4, align 8, !tbaa !29
  %21 = getelementptr inbounds nuw %struct.AlacEncodeContext, ptr %20, i32 0, i32 14
  call void @put_bits(ptr noundef %21, i32 noundef 12, i32 noundef 0)
  %22 = load ptr, ptr %4, align 8, !tbaa !29
  %23 = getelementptr inbounds nuw %struct.AlacEncodeContext, ptr %22, i32 0, i32 14
  %24 = load i32, ptr %7, align 4, !tbaa !57
  call void @put_bits(ptr noundef %23, i32 noundef 1, i32 noundef %24)
  %25 = load ptr, ptr %4, align 8, !tbaa !29
  %26 = getelementptr inbounds nuw %struct.AlacEncodeContext, ptr %25, i32 0, i32 14
  %27 = load ptr, ptr %4, align 8, !tbaa !29
  %28 = getelementptr inbounds nuw %struct.AlacEncodeContext, ptr %27, i32 0, i32 9
  %29 = load i32, ptr %28, align 4, !tbaa !40
  %30 = ashr i32 %29, 3
  call void @put_bits(ptr noundef %26, i32 noundef 2, i32 noundef %30)
  %31 = load ptr, ptr %4, align 8, !tbaa !29
  %32 = getelementptr inbounds nuw %struct.AlacEncodeContext, ptr %31, i32 0, i32 14
  %33 = load ptr, ptr %4, align 8, !tbaa !29
  %34 = getelementptr inbounds nuw %struct.AlacEncodeContext, ptr %33, i32 0, i32 3
  %35 = load i32, ptr %34, align 4, !tbaa !68
  call void @put_bits(ptr noundef %32, i32 noundef 1, i32 noundef %35)
  %36 = load i32, ptr %7, align 4, !tbaa !57
  %37 = icmp ne i32 %36, 0
  br i1 %37, label %38, label %44

38:                                               ; preds = %13
  %39 = load ptr, ptr %4, align 8, !tbaa !29
  %40 = getelementptr inbounds nuw %struct.AlacEncodeContext, ptr %39, i32 0, i32 14
  %41 = load ptr, ptr %4, align 8, !tbaa !29
  %42 = getelementptr inbounds nuw %struct.AlacEncodeContext, ptr %41, i32 0, i32 2
  %43 = load i32, ptr %42, align 16, !tbaa !31
  call void @put_bits32(ptr noundef %40, i32 noundef %43)
  br label %44

44:                                               ; preds = %38, %13
  call void @llvm.lifetime.end.p0(i64 4, ptr %7) #10
  ret void
}