; Function Attrs: nounwind uwtable
define internal fastcc void @write_element_header(ptr noundef captures(none) %0, i32 noundef range(i32 0, 2) %1, i32 noundef %2) unnamed_addr #1 {
  %4 = getelementptr inbounds nuw i8, ptr %0, i64 16
  %5 = load i32, ptr %4, align 16, !tbaa !27
  %6 = icmp slt i32 %5, 4096
  %spec.store.select = zext i1 %6 to i32
  %7 = getelementptr inbounds nuw i8, ptr %0, i64 65592
  %8 = load i32, ptr %7, align 8, !tbaa !68
  %9 = getelementptr inbounds nuw i8, ptr %0, i64 65596
  %10 = load i32, ptr %9, align 4, !tbaa !67
  %11 = icmp sgt i32 %10, 3
  br i1 %11, label %12, label %15

12:                                               ; preds = %3
  %13 = shl i32 %8, 3
  %14 = or disjoint i32 %13, %1
  br label %put_bits.exit

15:                                               ; preds = %3
  %16 = getelementptr inbounds nuw i8, ptr %0, i64 65616
  %17 = load ptr, ptr %16, align 8, !tbaa !65
  %18 = getelementptr inbounds nuw i8, ptr %0, i64 65608
  %19 = load ptr, ptr %18, align 8, !tbaa !66
  %20 = ptrtoint ptr %17 to i64
  %21 = ptrtoint ptr %19 to i64
  %22 = sub i64 %20, %21
  %23 = icmp ugt i64 %22, 3
  br i1 %23, label %24, label %32

24:                                               ; preds = %15
  %25 = shl i32 %8, %10
  %26 = sub nsw i32 3, %10
  %27 = lshr i32 %1, %26
  %28 = or i32 %27, %25
  %29 = tail call i32 @llvm.bswap.i32(i32 %28)
  store i32 %29, ptr %19, align 1, !tbaa !48
  %30 = load ptr, ptr %18, align 8, !tbaa !66
  %31 = getelementptr inbounds nuw i8, ptr %30, i64 4
  store ptr %31, ptr %18, align 8, !tbaa !66
  br label %put_bits.exit

32:                                               ; preds = %15
  tail call void (ptr, i32, ptr, ...) @av_log(ptr noundef null, i32 noundef 16, ptr noundef nonnull @.str.9) #7
  br label %put_bits.exit

put_bits.exit:                                    ; preds = %24, %32, %12
  %.sink = phi i32 [ -3, %12 ], [ 29, %32 ], [ 29, %24 ]
  %.026.i.i = phi i32 [ %14, %12 ], [ %1, %32 ], [ %1, %24 ]
  %33 = add nsw i32 %10, %.sink
  store i32 %.026.i.i, ptr %7, align 8, !tbaa !68
  store i32 %33, ptr %9, align 4, !tbaa !67
  %34 = icmp sgt i32 %33, 4
  br i1 %34, label %35, label %38

35:                                               ; preds = %put_bits.exit
  %36 = shl i32 %.026.i.i, 4
  %37 = or i32 %36, %2
  br label %put_bits.exit17

38:                                               ; preds = %put_bits.exit
  %39 = getelementptr inbounds nuw i8, ptr %0, i64 65616
  %40 = load ptr, ptr %39, align 8, !tbaa !65
  %41 = getelementptr inbounds nuw i8, ptr %0, i64 65608
  %42 = load ptr, ptr %41, align 8, !tbaa !66
  %43 = ptrtoint ptr %40 to i64
  %44 = ptrtoint ptr %42 to i64
  %45 = sub i64 %43, %44
  %46 = icmp ugt i64 %45, 3
  br i1 %46, label %47, label %55

47:                                               ; preds = %38
  %48 = shl i32 %.026.i.i, %33
  %49 = sub nsw i32 4, %33
  %50 = lshr i32 %2, %49
  %51 = or i32 %50, %48
  %52 = tail call i32 @llvm.bswap.i32(i32 %51)
  store i32 %52, ptr %42, align 1, !tbaa !48
  %53 = load ptr, ptr %41, align 8, !tbaa !66
  %54 = getelementptr inbounds nuw i8, ptr %53, i64 4
  store ptr %54, ptr %41, align 8, !tbaa !66
  br label %put_bits.exit17

55:                                               ; preds = %38
  tail call void (ptr, i32, ptr, ...) @av_log(ptr noundef null, i32 noundef 16, ptr noundef nonnull @.str.9) #7
  br label %put_bits.exit17

put_bits.exit17:                                  ; preds = %47, %55, %35
  %.sink34 = phi i32 [ -4, %35 ], [ 28, %55 ], [ 28, %47 ]
  %.026.i.i15 = phi i32 [ %37, %35 ], [ %2, %55 ], [ %2, %47 ]
  %56 = add nsw i32 %33, %.sink34
  store i32 %.026.i.i15, ptr %7, align 8, !tbaa !68
  store i32 %56, ptr %9, align 4, !tbaa !67
  %57 = icmp sgt i32 %56, 12
  br i1 %57, label %58, label %60

58:                                               ; preds = %put_bits.exit17
  %59 = shl i32 %.026.i.i15, 12
  br label %put_bits.exit21

60:                                               ; preds = %put_bits.exit17
  %61 = getelementptr inbounds nuw i8, ptr %0, i64 65616
  %62 = load ptr, ptr %61, align 8, !tbaa !65
  %63 = getelementptr inbounds nuw i8, ptr %0, i64 65608
  %64 = load ptr, ptr %63, align 8, !tbaa !66
  %65 = ptrtoint ptr %62 to i64
  %66 = ptrtoint ptr %64 to i64
  %67 = sub i64 %65, %66
  %68 = icmp ugt i64 %67, 3
  br i1 %68, label %69, label %74

69:                                               ; preds = %60
  %70 = shl i32 %.026.i.i15, %56
  %71 = tail call i32 @llvm.bswap.i32(i32 %70)
  store i32 %71, ptr %64, align 1, !tbaa !48
  %72 = load ptr, ptr %63, align 8, !tbaa !66
  %73 = getelementptr inbounds nuw i8, ptr %72, i64 4
  store ptr %73, ptr %63, align 8, !tbaa !66
  br label %put_bits.exit21

74:                                               ; preds = %60
  tail call void (ptr, i32, ptr, ...) @av_log(ptr noundef null, i32 noundef 16, ptr noundef nonnull @.str.9) #7
  br label %put_bits.exit21

put_bits.exit21:                                  ; preds = %69, %74, %58
  %.sink35 = phi i32 [ -12, %58 ], [ 20, %74 ], [ 20, %69 ]
  %.026.i.i19 = phi i32 [ %59, %58 ], [ 0, %74 ], [ 0, %69 ]
  %75 = add nsw i32 %56, %.sink35
  store i32 %.026.i.i19, ptr %7, align 8, !tbaa !68
  store i32 %75, ptr %9, align 4, !tbaa !67
  %76 = icmp sgt i32 %75, 1
  br i1 %76, label %77, label %80

77:                                               ; preds = %put_bits.exit21
  %78 = shl i32 %.026.i.i19, 1
  %79 = or disjoint i32 %78, %spec.store.select
  br label %put_bits.exit25

80:                                               ; preds = %put_bits.exit21
  %81 = getelementptr inbounds nuw i8, ptr %0, i64 65616
  %82 = load ptr, ptr %81, align 8, !tbaa !65
  %83 = getelementptr inbounds nuw i8, ptr %0, i64 65608
  %84 = load ptr, ptr %83, align 8, !tbaa !66
  %85 = ptrtoint ptr %82 to i64
  %86 = ptrtoint ptr %84 to i64
  %87 = sub i64 %85, %86
  %88 = icmp ugt i64 %87, 3
  br i1 %88, label %89, label %97

89:                                               ; preds = %80
  %90 = shl i32 %.026.i.i19, %75
  %91 = sub nsw i32 1, %75
  %92 = lshr i32 %spec.store.select, %91
  %93 = or disjoint i32 %92, %90
  %94 = tail call i32 @llvm.bswap.i32(i32 %93)
  store i32 %94, ptr %84, align 1, !tbaa !48
  %95 = load ptr, ptr %83, align 8, !tbaa !66
  %96 = getelementptr inbounds nuw i8, ptr %95, i64 4
  store ptr %96, ptr %83, align 8, !tbaa !66
  br label %put_bits.exit25

97:                                               ; preds = %80
  tail call void (ptr, i32, ptr, ...) @av_log(ptr noundef null, i32 noundef 16, ptr noundef nonnull @.str.9) #7
  br label %put_bits.exit25

put_bits.exit25:                                  ; preds = %89, %97, %77
  %.sink36 = phi i32 [ -1, %77 ], [ 31, %97 ], [ 31, %89 ]
  %.026.i.i23 = phi i32 [ %79, %77 ], [ %spec.store.select, %97 ], [ %spec.store.select, %89 ]
  %98 = add nsw i32 %75, %.sink36
  store i32 %.026.i.i23, ptr %7, align 8, !tbaa !68
  store i32 %98, ptr %9, align 4, !tbaa !67
  %99 = getelementptr inbounds nuw i8, ptr %0, i64 44
  %100 = load i32, ptr %99, align 4, !tbaa !37
  %101 = ashr i32 %100, 3
  %102 = icmp sgt i32 %98, 2
  br i1 %102, label %103, label %106

103:                                              ; preds = %put_bits.exit25
  %104 = shl i32 %.026.i.i23, 2
  %105 = or i32 %101, %104
  br label %put_bits.exit29

106:                                              ; preds = %put_bits.exit25
  %107 = getelementptr inbounds nuw i8, ptr %0, i64 65616
  %108 = load ptr, ptr %107, align 8, !tbaa !65
  %109 = getelementptr inbounds nuw i8, ptr %0, i64 65608
  %110 = load ptr, ptr %109, align 8, !tbaa !66
  %111 = ptrtoint ptr %108 to i64
  %112 = ptrtoint ptr %110 to i64
  %113 = sub i64 %111, %112
  %114 = icmp ugt i64 %113, 3
  br i1 %114, label %115, label %123

115:                                              ; preds = %106
  %116 = shl i32 %.026.i.i23, %98
  %117 = sub nsw i32 2, %98
  %118 = lshr i32 %101, %117
  %119 = or i32 %118, %116
  %120 = tail call i32 @llvm.bswap.i32(i32 %119)
  store i32 %120, ptr %110, align 1, !tbaa !48
  %121 = load ptr, ptr %109, align 8, !tbaa !66
  %122 = getelementptr inbounds nuw i8, ptr %121, i64 4
  store ptr %122, ptr %109, align 8, !tbaa !66
  br label %put_bits.exit29

123:                                              ; preds = %106
  tail call void (ptr, i32, ptr, ...) @av_log(ptr noundef null, i32 noundef 16, ptr noundef nonnull @.str.9) #7
  br label %put_bits.exit29

put_bits.exit29:                                  ; preds = %115, %123, %103
  %.sink37 = phi i32 [ -2, %103 ], [ 30, %123 ], [ 30, %115 ]
  %.026.i.i27 = phi i32 [ %105, %103 ], [ %101, %123 ], [ %101, %115 ]
  %124 = add nsw i32 %98, %.sink37
  store i32 %.026.i.i27, ptr %7, align 8, !tbaa !68
  store i32 %124, ptr %9, align 4, !tbaa !67
  %125 = getelementptr inbounds nuw i8, ptr %0, i64 20
  %126 = load i32, ptr %125, align 4, !tbaa !58
  %127 = icmp sgt i32 %124, 1
  br i1 %127, label %128, label %131

128:                                              ; preds = %put_bits.exit29
  %129 = shl i32 %.026.i.i27, 1
  %130 = or i32 %126, %129
  br label %put_bits.exit33

131:                                              ; preds = %put_bits.exit29
  %132 = getelementptr inbounds nuw i8, ptr %0, i64 65616
  %133 = load ptr, ptr %132, align 8, !tbaa !65
  %134 = getelementptr inbounds nuw i8, ptr %0, i64 65608
  %135 = load ptr, ptr %134, align 8, !tbaa !66
  %136 = ptrtoint ptr %133 to i64
  %137 = ptrtoint ptr %135 to i64
  %138 = sub i64 %136, %137
  %139 = icmp ugt i64 %138, 3
  br i1 %139, label %140, label %148

140:                                              ; preds = %131
  %141 = shl i32 %.026.i.i27, %124
  %142 = sub nsw i32 1, %124
  %143 = lshr i32 %126, %142
  %144 = or i32 %143, %141
  %145 = tail call i32 @llvm.bswap.i32(i32 %144)
  store i32 %145, ptr %135, align 1, !tbaa !48
  %146 = load ptr, ptr %134, align 8, !tbaa !66
  %147 = getelementptr inbounds nuw i8, ptr %146, i64 4
  store ptr %147, ptr %134, align 8, !tbaa !66
  br label %put_bits.exit33

148:                                              ; preds = %131
  tail call void (ptr, i32, ptr, ...) @av_log(ptr noundef null, i32 noundef 16, ptr noundef nonnull @.str.9) #7
  br label %put_bits.exit33

put_bits.exit33:                                  ; preds = %140, %148, %128
  %.sink38 = phi i32 [ -1, %128 ], [ 31, %148 ], [ 31, %140 ]
  %.026.i.i31 = phi i32 [ %130, %128 ], [ %126, %148 ], [ %126, %140 ]
  %149 = add nsw i32 %124, %.sink38
  store i32 %.026.i.i31, ptr %7, align 8, !tbaa !68
  store i32 %149, ptr %9, align 4, !tbaa !67
  br i1 %6, label %150, label %172

150:                                              ; preds = %put_bits.exit33
  %151 = load i32, ptr %4, align 16, !tbaa !27
  %152 = getelementptr inbounds nuw i8, ptr %0, i64 65616
  %153 = load ptr, ptr %152, align 8, !tbaa !65
  %154 = getelementptr inbounds nuw i8, ptr %0, i64 65608
  %155 = load ptr, ptr %154, align 8, !tbaa !66
  %156 = ptrtoint ptr %153 to i64
  %157 = ptrtoint ptr %155 to i64
  %158 = sub i64 %156, %157
  %159 = icmp ugt i64 %158, 3
  br i1 %159, label %160, label %171

160:                                              ; preds = %150
  %161 = zext i32 %.026.i.i31 to i64
  %162 = zext nneg i32 %149 to i64
  %163 = shl i64 %161, %162
  %164 = trunc i64 %163 to i32
  %165 = sub nsw i32 32, %149
  %166 = lshr i32 %151, %165
  %167 = or i32 %166, %164
  %168 = tail call i32 @llvm.bswap.i32(i32 %167)
  store i32 %168, ptr %155, align 1, !tbaa !48
  %169 = load ptr, ptr %154, align 8, !tbaa !66
  %170 = getelementptr inbounds nuw i8, ptr %169, i64 4
  store ptr %170, ptr %154, align 8, !tbaa !66
  br label %put_bits32.exit

171:                                              ; preds = %150
  tail call void (ptr, i32, ptr, ...) @av_log(ptr noundef null, i32 noundef 16, ptr noundef nonnull @.str.9) #7
  br label %put_bits32.exit

put_bits32.exit:                                  ; preds = %160, %171
  store i32 %151, ptr %7, align 8, !tbaa !68
  store i32 %149, ptr %9, align 4, !tbaa !67
  br label %172

172:                                              ; preds = %put_bits32.exit, %put_bits.exit33
  ret void
}